(lp0
((F1.5
F419.5
tp1
F2.0
tp2
a((F365.5
F414.5
tp3
F3.6415998935699463
tp4
a((F68.0
F414.5
tp5
F1.5449999570846558
tp6
a((F60.5
F415.5
tp7
F4.430197715759277
tp8
a((F73.5
F414.0
tp9
F4.152062892913818
tp10
a((F219.5
F407.5
tp11
F4.6635236740112305
tp12
a((F218.7941131591797
F401.558837890625
tp13
F5.597286701202393
tp14
a((F179.33018493652344
F402.9339599609375
tp15
F7.186370849609375
tp16
a((F182.5
F391.5
tp17
F1.0
tp18
a((F220.0
F384.5
tp19
F4.4001617431640625
tp20
a((F176.5
F386.0
tp21
F6.695000171661377
tp22
a((F245.0
F365.0
tp23
F2.9132797718048096
tp24
a((F152.0
F365.5
tp25
F5.474524974822998
tp26
a((F290.5
F364.0
tp27
F4.022278785705566
tp28
a((F268.5
F360.0
tp29
F3.6050000190734863
tp30
a((F111.5
F360.5
tp31
F5.302249908447266
tp32
a((F168.65383911132812
F349.3461608886719
tp33
F5.087136745452881
tp34
a((F224.0
F347.5
tp35
F4.858500003814697
tp36
a((F300.5
F328.0
tp37
F4.022278785705566
tp38
a((F262.0
F328.5
tp39
F4.152062892913818
tp40
a((F41.5
F316.5
tp41
F3.9221231937408447
tp42
a((F230.5
F318.0
tp43
F5.376758098602295
tp44
a((F337.0
F314.5
tp45
F5.474524974822998
tp46
a((F92.5
F310.29998779296875
tp47
F2.828272581100464
tp48
a((F194.0
F310.0
tp49
F5.150000095367432
tp50
a((F157.0
F308.8125
tp51
F6.455820560455322
tp52
a((F301.5
F302.0
tp53
F4.152062892913818
tp54
a((F173.5
F301.0
tp55
F6.027920246124268
tp56
a((F84.92308044433594
F299.5384521484375
tp57
F4.770315170288086
tp58
a((F120.5
F292.5
tp59
F1.6285730600357056
tp60
a((F101.69999694824219
F296.5
tp61
F4.690742015838623
tp62
a((F106.0
F281.5
tp63
F4.858500003814697
tp64
a((F27.0
F275.0
tp65
F1.0
tp66
a((F341.4090881347656
F275.9545593261719
tp67
F2.6690495014190674
tp68
a((F193.0
F279.5
tp69
F7.004757404327393
tp70
a((F141.0
F275.0
tp71
F4.606299877166748
tp72
a((F117.5
F272.0
tp73
F5.570577144622803
tp74
a((F289.70001220703125
F258.5
tp75
F4.954721927642822
tp76
a((F282.5
F254.5
tp77
F2.62599515914917
tp78
a((F357.5
F253.0
tp79
F2.123399257659912
tp80
a((F161.5
F246.0
tp81
F7.154608249664307
tp82
a((F223.14999389648438
F240.39999389648438
tp83
F5.573662281036377
tp84
a((F75.0
F237.5
tp85
F2.575000047683716
tp86
a((F213.0
F235.0
tp87
F1.0
tp88
a((F55.5
F237.0
tp89
F3.132622718811035
tp90
a((F124.67857360839844
F234.76190185546875
tp91
F5.901341915130615
tp92
a((F336.0
F230.0
tp93
F1.0299999713897705
tp94
a((F137.14999389648438
F232.0
tp95
F5.403568744659424
tp96
a((F122.0
F229.0
tp97
F1.0
tp98
a((F13.0
F233.0
tp99
F5.25199031829834
tp100
a((F173.5
F230.5
tp101
F7.319525241851807
tp102
a((F210.0
F227.5
tp103
F6.286375999450684
tp104
a((F195.0
F215.0
tp105
F1.0
tp106
a((F127.5
F220.0
tp107
F6.3701982498168945
tp108
a((F153.5
F215.5
tp109
F3.0029399394989014
tp110
a((F51.21428680419922
F211.7857208251953
tp111
F2.601137399673462
tp112
a((F270.5
F206.92857360839844
tp113
F5.102487087249756
tp114
a((F322.5
F198.5
tp115
F2.184959888458252
tp116
a((F29.409090042114258
F197.86363220214844
tp117
F3.287285566329956
tp118
a((F299.0
F194.0
tp119
F5.150000095367432
tp120
a((F262.3333435058594
F191.3333282470703
tp121
F3.838573932647705
tp122
a((F174.0
F184.5
tp123
F1.151574969291687
tp124
a((F164.5
F187.0
tp125
F5.072161674499512
tp126
a((F42.0
F177.5
tp127
F1.0
tp128
a((F50.5
F176.5
tp129
F5.302249908447266
tp130
a((F45.0
F170.5
tp131
F1.0
tp132
a((F37.0
F169.5
tp133
F1.5449999570846558
tp134
a((F169.5
F162.5
tp135
F3.0029401779174805
tp136
a((F121.0
F153.5
tp137
F3.4547250270843506
tp138
a((F151.0
F147.0
tp139
F1.0
tp140
a((F203.5
F148.5
tp141
F4.6635236740112305
tp142
a((F197.5
F144.0
tp143
F1.0
tp144
a((F232.5
F144.5
tp145
F3.6415998935699463
tp146
a((F374.6111145019531
F145.38888549804688
tp147
F5.260087490081787
tp148
a((F363.2272644042969
F143.77272033691406
tp149
F4.038862228393555
tp150
a((F152.0
F139.5
tp151
F1.0
tp152
a((F42.5
F139.5
tp153
F1.0
tp154
a((F336.5
F139.0
tp155
F3.2976090908050537
tp156
a((F135.5
F141.0
tp157
F4.74806547164917
tp158
a((F91.5
F137.0
tp159
F1.8568588495254517
tp160
a((F42.0
F132.5
tp161
F1.0
tp162
a((F260.23077392578125
F133.88461303710938
tp163
F3.450183153152466
tp164
a((F48.5
F135.0
tp165
F5.376758098602295
tp166
a((F218.1666717529297
F128.1666717529297
tp167
F2.0
tp168
a((F305.6864318847656
F129.17796325683594
tp169
F4.97719144821167
tp170
a((F113.28947448730469
F130.57894897460938
tp171
F6.061225414276123
tp172
a((F149.0
F126.0
tp173
F3.7137176990509033
tp174
a((F72.84883880615234
F126.90697479248047
tp175
F6.336422920227051
tp176
a((F37.5
F123.0
tp177
F5.757874965667725
tp178
a((F283.5
F118.5
tp179
F3.0029401779174805
tp180
a((F94.0
F116.5
tp181
F4.4001617431640625
tp182
a((F220.0
F107.0
tp183
F1.0
tp184
a((F152.5
F108.0
tp185
F4.74806547164917
tp186
a((F40.5
F95.0
tp187
F6.695000171661377
tp188
a((F128.5
F93.5
tp189
F7.742147445678711
tp190
a((F96.5
F89.5
tp191
F6.714778423309326
tp192
a((F281.0
F88.0
tp193
F7.427435398101807
tp194
a((F315.5
F86.0
tp195
F7.861134052276611
tp196
a((F49.5
F81.0
tp197
F4.4001617431640625
tp198
a((F115.0
F73.0
tp199
F2.303149938583374
tp200
a((F81.72222137451172
F71.72222137451172
tp201
F3.3179006576538086
tp202
a((F135.0
F62.5
tp203
F4.4001617431640625
tp204
a((F98.5
F62.5
tp205
F3.9221231937408447
tp206
a((F237.5
F59.5
tp207
F3.9221231937408447
tp208
a((F280.0
F56.0
tp209
F1.0
tp210
a((F102.5
F56.5
tp211
F1.0
tp212
a((F66.0
F59.0
tp213
F5.25199031829834
tp214
a((F111.78571319580078
F53.5
tp215
F4.194215297698975
tp216
a((F315.0
F49.5
tp217
F2.575000047683716
tp218
a((F86.15789794921875
F52.21052551269531
tp219
F4.3398895263671875
tp220
a((F261.5
F48.5
tp221
F3.0029401779174805
tp222
a((F291.5
F45.5
tp223
F3.0029401779174805
tp224
a((F277.0
F32.5
tp225
F2.575000047683716
tp226
a((F111.5
F26.5
tp227
F2.184959888458252
tp228
a((F272.5
F25.0
tp229
F3.6050000190734863
tp230
a((F275.0
F19.5
tp231
F5.175685882568359
tp232
a((F360.0
F12.0
tp233
F2.059999942779541
tp234
a((F384.67496339677894
F8.125
tp235
cnumpy.core.multiarray
scalar
p236
(cnumpy
dtype
p237
(S'f8'
p238
I0
I1
tp239
Rp240
(I3
S'<'
p241
NNNI-1
I-1
I0
tp242
bS'8\xc0\x8e{\x12m\x13@'
p243
tp244
Rp245
tp246
a((F338.0571010248902
F59.6875
tp247
g236
(g240
S'\x86\xea\xf3\x84\x10\r\x01@'
p248
tp249
Rp250
tp251
a((F335.0117130307467
F67.5
tp252
g236
(g240
S'\x00\x00\x00\x00\x00\x00\xee?'
p253
tp254
Rp255
tp256
a((F337.3543191800878
F76.875
tp257
g236
(g240
S'\xc0\x886\xd5\x1aN\x08@'
p258
tp259
Rp260
tp261
a((F344.6163982430454
F89.0625
tp262
g236
(g240
S'\x0eT\xf4C\x08\xd6\x13@'
p263
tp264
Rp265
tp266
a((F334.30893118594435
F86.875
tp267
g236
(g240
S'\xce\xc2\xf8\xe1\x8b\x05\xf2?'
p268
tp269
Rp270
tp271
a((F334.5431918008785
F102.1875
tp272
g236
(g240
S'\xbc\xd3];\x98>\xff?'
p273
tp274
Rp275
tp276
a((F329.8579795021962
F107.1875
tp277
g236
(g240
S'\xc3<\x15\x86\xa7&\r@'
p278
tp279
Rp280
tp281
a((F329.8579795021962
F118.4375
tp282
g236
(g240
S'\xf3\xc0\xcb\xden\x8d\x0c@'
p283
tp284
Rp285
tp286
a((F348.36456808199125
F124.6875
tp287
g236
(g240
S'-\xc2\xc6\xbeRG\x11@'
p288
tp289
Rp290
tp291
a((F339.696925329429
F164.0625
tp292
g236
(g240
S'\xda\t\xf2;\x92i\xfb?'
p293
tp294
Rp295
tp296
a((F356.79795021961934
F175.625
tp297
g236
(g240
S'\xb5\xcc\x87\x90+\x01\x18@'
p298
tp299
Rp300
tp301
a((F348.83308931185945
F198.125
tp302
g236
(g240
S'U\xe9\x984\xf2\xde\x08@'
p303
tp304
Rp305
tp306
a((F353.51830161054176
F214.0625
tp307
g236
(g240
S't<4O\x03I\x1d@'
p308
tp309
Rp310
tp311
a((F310.88286969253295
F172.5
tp312
g236
(g240
S'Z\xd6\x1c_\x9e\x0e\x1b@'
p313
tp314
Rp315
tp316
a((F316.7393850658858
F160.3125
tp317
g236
(g240
S'\xb9\xa15\xb4\xca\xb2\x1a@'
p318
tp319
Rp320
tp321
a((F285.81698389458273
F172.5
tp322
g236
(g240
S'\xe8\xa9,\x7fB\xd6\r@'
p323
tp324
Rp325
tp326
a((F277.85212298682285
F172.8125
tp327
g236
(g240
S'I?\xadq\xc7\x1d\x12@'
p328
tp329
Rp330
tp331
a((F248.33528550512446
F160.9375
tp332
g236
(g240
S'\xafa\xd8\x1b\xe9F\x10@'
p333
tp334
Rp335
tp336
a((F225.14348462664714
F174.6875
tp337
g236
(g240
S'\x1f\xc7R{\x9e\t\x0b@'
p338
tp339
Rp340
tp341
a((F220.9267935578331
F182.8125
tp342
g236
(g240
S'`[T\xcat\xc6\x04@'
p343
tp344
Rp345
tp346
a((F219.75549048316253
F165.9375
tp347
g236
(g240
S'[\xb7D\x97\xb5;\xfe?'
p348
tp349
Rp350
tp351
a((F214.13323572474377
F175.0
tp352
g236
(g240
S'pg\n*h\xd8\x1a@'
p353
tp354
Rp355
tp356
a((F182.27379209370423
F141.25
tp357
g236
(g240
S'\x08C~/\xe0\xfe\x08@'
p358
tp359
Rp360
tp361
a((F190.47291361639824
F145.625
tp362
g236
(g240
S'\xdf.\x00\xec\xf6a\x0b@'
p363
tp364
Rp365
tp366
a((F182.50805270863836
F150.3125
tp367
g236
(g240
S'[\xb7D\x97\xb5;\xfe?'
p368
tp369
Rp370
tp371
a((F195.62664714494878
F158.125
tp372
g236
(g240
S'j\x1d\x94\xc0\x8bh\xfb?'
p373
tp374
Rp375
tp376
a((F185.31918008784774
F169.375
tp377
g236
(g240
S'h\xb1\xbc\x97\xb1\xb7\x13@'
p378
tp379
Rp380
tp381
a((F196.5636896046852
F174.0625
tp382
g236
(g240
S'\x80\xb2\xfar\x86u\x02@'
p383
tp384
Rp385
tp386
a((F187.896046852123
F181.5625
tp387
g236
(g240
S'\x8e\x8f\x9b\x07T2\x14@'
p388
tp389
Rp390
tp391
a((F178.0571010248902
F188.125
tp392
g236
(g240
S'\xf5Y\x8c\x08\x8c\x0b\n@'
p393
tp394
Rp395
tp396
a((F190.00439238653001
F206.5625
tp397
g236
(g240
S'\x00\x00\x00\x00\x00\x00\t@'
p398
tp399
Rp400
tp401
a((F196.09516837481698
F197.8125
tp402
g236
(g240
S'Q\xc0\xa7\xca\xa7)\n@'
p403
tp404
Rp405
tp406
a((F200.31185944363105
F205.0
tp407
g236
(g240
S'M\x02i\xeb\xba\xf1\x06@'
p408
tp409
Rp410
tp411
a((F197.03221083455344
F212.1875
tp412
g236
(g240
S'\xa6\t\xf2;\x92i\xfb?'
p413
tp414
Rp415
tp416
a((F198.43777452415813
F218.75
tp417
g236
(g240
S'\xcdD\xaa\n\x85\x18\xfe?'
p418
tp419
Rp420
tp421
a((F188.1303074670571
F226.875
tp422
g236
(g240
S'\xf5-)m\x0c\xce\x18@'
p423
tp424
Rp425
tp426
a((F182.50805270863836
F218.4375
tp427
g236
(g240
S'\xc2\x1d\x94\xc0\x8bh\xfb?'
p428
tp429
Rp430
tp431
a((F184.6163982430454
F210.9375
tp432
g236
(g240
S'U\xb2\x9e#(\xbf\xf2?'
p433
tp434
Rp435
tp436
a((F180.16544655929724
F206.5625
tp437
g236
(g240
S'\xa5\xea\xf3\x84\x10\r\x11@'
p438
tp439
Rp440
tp441
a((F154.39677891654466
F197.8125
tp442
g236
(g240
S'\x8e\xb3\xff\xc7c\x92\x16@'
p443
tp444
Rp445
tp446
a((F143.15226939970717
F173.75
tp447
g236
(g240
S'\xb0_)\xad\xd40!@'
p448
tp449
Rp450
tp451
a((F114.33821376281114
F194.6875
tp452
g236
(g240
S'"8\x11\xfe\xbe\xba\t@'
p453
tp454
Rp455
tp456
a((F115.27525622254758
F199.0625
tp457
g236
(g240
S'\xff\x08\xb9\x0b\xd0\x1e\x02@'
p458
tp459
Rp460
tp461
a((F104.49926793557833
F223.125
tp462
g236
(g240
S'\xdcNs\xaf\x9d\x99\x11@'
p463
tp464
Rp465
tp466
a((F82.94729136163983
F179.375
tp467
g236
(g240
S'\xd52KBD\xb0!@'
p468
tp469
Rp470
tp471
a((F79.90190336749635
F190.625
tp472
g236
(g240
S'\xd4\xd3];\x98>\xff?'
p473
tp474
Rp475
tp476
a((F33.0307467057101
F280.6875
tp477
g236
(g240
S'\x85\xbfzxo  @'
p478
tp479
Rp480
tp481
a((F47.55490483162519
F279.75
tp482
g236
(g240
S'D\xa6K(\xe6U\n@'
p483
tp484
Rp485
tp486
a((F45.68081991215227
F254.75
tp487
g236
(g240
S'd\x8dX\x9ai\x99\x1f@'
p488
tp489
Rp490
tp491
a((F71.91800878477306
F272.25
tp492
g236
(g240
S'%1\xdaX\xee\xb8\x1c@'
p493
tp494
Rp495
tp496
a((F81.05417276720351
F267.5625
tp497
g236
(g240
S'\x15p\xd0KA5\xf5?'
p498
tp499
Rp500
tp501
a((F100.26354319180088
F255.375
tp502
g236
(g240
S'\xdcNs\xaf\x9d\x99\x11@'
p503
tp504
Rp505
tp506
a((F81.75695461200587
F247.25
tp507
g236
(g240
S'\xd5\x8e:$\xd1~\x00@'
p508
tp509
Rp510
tp511
a((F65.82723279648609
F241.9375
tp512
g236
(g240
S'O\xdca\x08\x1a1\x07@'
p513
tp514
Rp515
tp516
a((F66.29575402635432
F250.375
tp517
g236
(g240
S'\x00\x00\x00\x00\x00\x00\xd4?'
p518
tp519
Rp520
tp521
a((F67.23279648609078
F255.375
tp522
g236
(g240
S'\xc4\xa15\xb4\xca\xb2\n@'
p523
tp524
Rp525
tp526
a((F66.29575402635432
F226.625
tp527
g236
(g240
S's\xcfbPIE\x15@'
p528
tp529
Rp530
tp531
a((F61.37628111273792
F210.6875
tp532
g236
(g240
S'\x81\x92\x12\xb5\xb0\xaf\x01@'
p533
tp534
Rp535
tp536
a((F57.8623718887262
F202.25
tp537
g236
(g240
S'_\x0bn5\xbc\x1e\x0c@'
p538
tp539
Rp540
tp541
a((F39.5900439238653
F200.0625
tp542
g236
(g240
S'\x00\x00\x00\x00\x00\x00\x0e@'
p543
tp544
Rp545
tp546
a((F38.418740849194734
F188.1875
tp547
g236
(g240
S'I\xe2\xa6\xb1\x95S\x13@'
p548
tp549
Rp550
tp551
a((F43.572474377745245
F151.625
tp552
g236
(g240
S'K\xa3\xca\xd7\xd1\x1a$@'
p553
tp554
Rp555
tp556
a((F26.70571010248902
F169.4375
tp557
g236
(g240
S'A\x8a\xdf<\xab\xa3\x10@'
p558
tp559
Rp560
tp561
a((F16.398243045387993
F167.5625
tp562
g236
(g240
S'\xc3<\x15\x86\xa7&\xfd?'
p563
tp564
Rp565
tp566
a((F9.838945827232797
F166.3125
tp567
g236
(g240
S':\xbe\xc8y\n\x14\xfc?'
p568
tp569
Rp570
tp571
a((F8.199121522693996
F29.875
tp572
g236
(g240
S'\xaa\xc6\xff\xd5\xca\xed @'
p573
tp574
Rp575
tp576
a((F48.49194729136164
F69.875
tp577
g236
(g240
S'c\xf8\xd6]\x03G\x1a@'
p578
tp579
Rp580
tp581
a((F68.16983894582724
F42.6875
tp582
g236
(g240
S'O\x9a\xb1\xc6\x9a\xe5\x01@'
p583
tp584
Rp585
tp586
a((F80.35139092240118
F40.8125
tp587
g236
(g240
S'\xe4Ns\xaf\x9d\x99\x01@'
p588
tp589
Rp590
tp591
a((F98.38945827232797
F39.875
tp592
g236
(g240
S'\x00\x00\x00\x00\x00\x80\x0b@'
p593
tp594
Rp595
tp596
a((F99.79502196193265
F52.0625
tp597
g236
(g240
S'\x91\xb4\xf7\\\xd5[\x05@'
p598
tp599
Rp600
tp601
a((F98.62371888726209
F29.5625
tp602
g236
(g240
S'\xcbI\xdc\x85\xf3\xce\x12@'
p603
tp604
Rp605
tp606
a((F98.15519765739384
F24.5625
tp607
g236
(g240
S'\xec\xa11\xebc\xed\x03@'
p608
tp609
Rp610
tp611
a((F392.3147877013177
F415.4375
tp612
g236
(g240
S'\xe48e`W &@'
p613
tp614
Rp615
tp616
a((F322.5051244509517
F350.125
tp617
g236
(g240
S'\xa2MZZ\xa0;\x1c@'
p618
tp619
Rp620
tp621
a((F218.7276720351391
F411.6875
tp622
g236
(g240
S'\x99\xc2\xf8\xe1\x8b\x05\x02@'
p623
tp624
Rp625
tp626
a((F231.37774524158127
F391.6875
tp627
g236
(g240
S'X\x12\xb4\x1a(\xe8\x02@'
p628
tp629
Rp630
tp631
a((F207.4831625183016
F388.5625
tp632
g236
(g240
S'\xd6\xa11\xebc\xed\x03@'
p633
tp634
Rp635
tp636
a((F198.11273792093704
F384.8125
tp637
g236
(g240
S'l\xd0\xd7\xb5"\xec\x0e@'
p638
tp639
Rp640
tp641
a((F196.23865300146414
F355.75
tp642
g236
(g240
S'\xce\xd2v\x8d\xbaA @'
p643
tp644
Rp645
tp646
a((F194.1303074670571
F295.75
tp647
g236
(g240
S'Q\xc0\xa7\xca\xa7)\n@'
p648
tp649
Rp650
tp651
a((F212.87115666178624
F299.5
tp652
g236
(g240
S'\x95l\x1c\x84\xec\x1f\x10@'
p653
tp654
Rp655
tp656
a((F222.71010248901905
F302.0
tp657
g236
(g240
S'\x9f\xb0`<\x9f~\x19@'
p658
tp659
Rp660
tp661
a((F237.0
F306.6875
tp662
g236
(g240
S'\tG\xee\x94\xd5\xef\x05@'
p663
tp664
Rp665
tp666
a((F303.2957540263543
F226.0625
tp667
g236
(g240
S'\x85\xfd\xd9\x92XO\x14@'
p668
tp669
Rp670
tp671
a((F324.37920937042463
F254.5
tp672
g236
(g240
S'\x93J^e\x1dU\x15@'
p673
tp674
Rp675
tp676
a((F313.6032210834553
F275.4375
tp677
g236
(g240
S'\xb0^\xd6\xdf\xd4\xc4\x00@'
p678
tp679
Rp680
tp681
a((F318.5226939970717
F284.1875
tp682
g236
(g240
S'-\xf0\x97eO\xe5\x11@'
p683
tp684
Rp685
tp686
a((F134.95607613469986
F42.5
tp687
g236
(g240
S'\xbe\xa15\xb4\xca\xb2\x1a@'
p688
tp689
Rp690
tp691
a((F119.02635431918009
F40.625
tp692
g236
(g240
S'\xc3<\x15\x86\xa7&\xfd?'
p693
tp694
Rp695
tp696
a((F152.99414348462665
F79.0625
tp697
g236
(g240
S'\xe9F\xe2s\xce\x1b\x08@'
p698
tp699
Rp700
tp701
a((F164.00439238653001
F117.8125
tp702
g236
(g240
S'M\x02i\xeb\xba\xf1\x16@'
p703
tp704
Rp705
tp706
a((F164.94143484626647
F134.6875
tp707
g236
(g240
S'\x06\xd3\xb2\xb2\x86a\x02@'
p708
tp709
Rp710
tp711
a((F159.55344070278184
F142.1875
tp712
g236
(g240
S'\xce\xae$\x1c\xe9\xe3\x19@'
p713
tp714
Rp715
tp716
a((F167.2840409956076
F151.875
tp717
g236
(g240
S'k\x9e\xe0\x95c\x9b\x11@'
p718
tp719
Rp720
tp721
a((F170.7979502196193
F140.9375
tp722
g236
(g240
S'\xda\xc8g\xe4do\x15@'
p723
tp724
Rp725
tp726
a((F105.67349926793558
F166.25
tp727
g236
(g240
S'<\xc0\xa7\xca\xa7)\n@'
p728
tp729
Rp730
tp731
a((F103.09663250366032
F151.25
tp732
g236
(g240
S'\x1d\xac\x1e\xc9\xaf\xa4\x1b@'
p733
tp734
Rp735
tp736
a((F89.27525622254758
F159.0625
tp737
g236
(g240
S'\x18G\xee\x94\xd5\xef\x05@'
p738
tp739
Rp740
tp741
a((F81.07613469985358
F145.3125
tp742
g236
(g240
S'h\xfag\xbb\xeam\x1f@'
p743
tp744
Rp745
tp746
a((F75.68814055636896
F156.5625
tp747
g236
(g240
S'\x82\xc3\xf2\xbb\xc9}\x10@'
p748
tp749
Rp750
tp751
a((F63.74084919472914
F167.5
tp752
g236
(g240
S'7\xee>P\xe0\x80\x0c@'
p753
tp754
Rp755
tp756
a((F20.14641288433382
F411.6875
tp757
g236
(g240
S'\xa8\x0e=|wH1@'
p758
tp759
Rp760
tp761
a((F80.11713030746706
F348.5625
tp762
g236
(g240
S"'\xfb\xce\xd2\x98\xb5\n@"
p763
tp764
Rp765
tp766
a((F59.73645680819912
F318.25
tp767
g236
(g240
S'k\x99\x8d\x9bVy\x1f@'
p768
tp769
Rp770
tp771
a((F115.7247437774524
F386.6875
tp772
g236
(g240
S':\x00\xb7S0\x9e\x17@'
p773
tp774
Rp775
tp776
a((F144.7730600292826
F383.875
tp777
g236
(g240
S'\x85^\xd6\xdf\xd4\xc4\x10@'
p778
tp779
Rp780
tp781
a((F141.25915080527088
F338.5625
tp782
g236
(g240
S'\x1a\xc2b\x161i\x1d@'
p783
tp784
Rp785
tp786
a((F127.43777452415813
F340.4375
tp787
g236
(g240
S'(\x93\xa6l\xe38\x0c@'
p788
tp789
Rp790
tp791
a((F125.32942898975111
F293.875
tp792
g236
(g240
S'0e\xd6L\x995#@'
p793
tp794
Rp795
tp796
a((F137.0424597364568
F248.25
tp797
g236
(g240
S"P0\x8e\xc7\xa8G'@"
p798
tp799
Rp800
tp801
a((F86.44216691068814
F219.1875
tp802
g236
(g240
S'&}?\xd4\xc5\x13\x1e@'
p803
tp804
Rp805
tp806
a((F381.5387994143485
F145.625
tp807
g236
(g240
S'\x9d\xbd\xc8y\n\x14\xfc?'
p808
tp809
Rp810
tp811
a((F242.38799414348463
F93.125
tp812
g236
(g240
S'{\xc7\xb9\x05\xe0\x04 @'
p813
tp814
Rp815
tp816
a((F232.0805270863836
F86.5625
tp817
g236
(g240
S'\xa2MZZ\xa0;\x1c@'
p818
tp819
Rp820
tp821
a((F235.3601756954612
F96.5625
tp822
g236
(g240
S'\xc4\xe2\xfc\xb0\x12\x0b\x15@'
p823
tp824
Rp825
tp826
a((F239.57686676427525
F102.8125
tp827
g236
(g240
S'\x95\xecu\xe2"Y\x14@'
p828
tp829
Rp830
tp831
a((F234.89165446559298
F117.5
tp832
g236
(g240
S'[\x14\x94\xdd\xbcT\x19@'
p833
tp834
Rp835
tp836
a((F216.38506588579796
F107.8125
tp837
g236
(g240
S'\xad\xa6\xe6\x85\xfd\xad @'
p838
tp839
Rp840
tp841
a((F217.79062957540265
F78.75
tp842
g236
(g240
S'\x0e\xf7\xc5XU(\x19@'
p843
tp844
Rp845
tp846
a((F237.70278184480236
F39.0625
tp847
g236
(g240
S'v.%\x9a\xf5\xc0\x15@'
p848
tp849
Rp850
tp851
a((F258.3177159590044
F70.0
tp852
g236
(g240
S'\xc5\xb4\x0e\xcd\x87T!@'
p853
tp854
Rp855
tp856
a((F278.2298682284041
F55.3125
tp857
g236
(g240
S'8u\x14\x01\x03x\x1e@'
p858
tp859
Rp860
tp861
a((F295.5651537335286
F65.625
tp862
g236
(g240
S'\xff0\xa5|$[\x1a@'
p863
tp864
Rp865
tp866
a((F296.97071742313324
F105.9375
tp867
g236
(g240
S'\xd8\xbe\x8e\xcd\x9e\xcf\x1c@'
p868
tp869
Rp870
tp871
a((F282.9150805270864
F139.375
tp872
g236
(g240
S'\x0b\x8d\x17\x1d\x1b(\x1f@'
p873
tp874
Rp875
tp876
a((F266.7510980966325
F105.625
tp877
g236
(g240
S'\xb9\xa15\xb4\xca\xb2\x1a@'
p878
tp879
Rp880
tp881
a((F238.17130307467056
F127.18749999999999
tp882
g236
(g240
S'\x01\xa21\xebc\xed\x03@'
p883
tp884
Rp885
tp886
a((F226.692532942899
F206.25
tp887
g236
(g240
S'\xb4^h\xca\xb9\t\x13@'
p888
tp889
Rp890
tp891
a((F181.02489019033675
F337.3125
tp892
g236
(g240
S'c\x04\xd6\x87)\xdb\x19@'
p893
tp894
Rp895
tp896
a((F178.4480234260615
F320.75
tp897
g236
(g240
S'v\x1aA\xfb\x16\xc1\x1b@'
p898
tp899
Rp900
tp901
a((F210.0732064421669
F336.6875
tp902
g236
(g240
S'\x8c\xbe\xc8y\n\x14\xfc?'
p903
tp904
Rp905
tp906
a((F245.6808199121523
F341.375
tp907
g236
(g240
S'\xb4"\xcaF{]\x10@'
p908
tp909
Rp910
tp911
a((F281.2884333821376
F350.125
tp912
g236
(g240
S'q\x1ez\xeej\x86\x11@'
p913
tp914
Rp915
tp916
a((F281.5226939970717
F333.25
tp917
g236
(g240
S'\xfd\x93xv\x9f\x11\x1c@'
p918
tp919
Rp920
tp921
a((F287.14494875549053
F311.375
tp922
g236
(g240
S'B\x9a\xb1\xc6\x9a\xe5\x01@'
p923
tp924
Rp925
tp926
a((F287.61346998535873
F296.0625
tp927
g236
(g240
S'\x18/\x00\xec\xf6a\x0b@'
p928
tp929
Rp930
tp931
a((F278.4773060029283
F277.9375
tp932
g236
(g240
S'*\x8f\xc1\xd9\x0e=\x1e@'
p933
tp934
Rp935
tp936
a((F260.43923865300144
F266.6875
tp937
g236
(g240
S'\x88z\xf4\xb6z\xf6$@'
p938
tp939
Rp940
tp941
a((F252.7086383601757
F248.25
tp942
g236
(g240
S'\x8e\x87S\xc7\xbc8"@'
p943
tp944
Rp945
tp946
a((F259.50219619326504
F242.3125
tp947
g236
(g240
S'\xfd\x93xv\x9f\x11\x0c@'
p948
tp949
Rp950
tp951
a((F245.21229868228406
F270.125
tp952
g236
(g240
S'\x0e\xe7\xddq\x1a\xb1\x1a@'
p953
tp954
Rp955
tp956
a((F252.47437774524158
F276.6875
tp957
g236
(g240
S'\x94^\xd6\xdf\xd4\xc4\x10@'
p958
tp959
Rp960
tp961
a((F241.69838945827235
F282.0
tp962
g236
(g240
S'\x0b\x1c\xaa)\xf2\x93\x06@'
p963
tp964
Rp965
tp966
a((F247.55490483162518
F293.5625
tp967
g236
(g240
S'\x00\x00\x00\x00\x00\x80\x0b@'
p968
tp969
Rp970
tp971
a((F252.24011713030748
F287.0
tp972
g236
(g240
S'\x86\xe87\xa9\x14\xc2\x12@'
p973
tp974
Rp975
tp976
a((F260.6734992679356
F280.125
tp977
g236
(g240
S'\x00\xa1\xf6J\xa8\xbd\x02@'
p978
tp979
Rp980
tp981
a((F259.26793557833093
F286.6875
tp982
g236
(g240
S'<\x87\xf5\xac-\x8f\x14@'
p983
tp984
Rp985
tp986
a((F278.7115666178624
F307.9375
tp987
g236
(g240
S'\x07\xfb\xce\xd2\x98\xb5\xfa?'
p988
tp989
Rp990
tp991
a((F272.38653001464127
F310.4375
tp992
g236
(g240
S'l\x0bn5\xbc\x1e\x0c@'
p993
tp994
Rp995
tp996
a((F280.8199121522694
F318.5625
tp997
g236
(g240
S'p\xb4\xf7\\\xd5[\xf5?'
p998
tp999
Rp1000
tp1001
a((F303.07467057101024
F316.375
tp1002
g236
(g240
S'c\xb2\xfar\x86u\x02@'
p1003
tp1004
Rp1005
tp1006
a((F255.50658857979505
F385.5625
tp1007
g236
(g240
S"+\xa2\xf9'=f\xfe?"
p1008
tp1009
Rp1010
tp1011
a((F274.01317715959004
F384.625
tp1012
g236
(g240
S'\x90\x88]\x0e\xa7\xa0\x06@'
p1013
tp1014
Rp1015
tp1016
a((F285.25768667642757
F385.875
tp1017
g236
(g240
S'\x80\xa0\xf6J\xa8\xbd\xf2?'
p1018
tp1019
Rp1020
tp1021
a((F358.34699853587114
F310.75
tp1022
g236
(g240
S'v`\xe7\xc9W!\x1b@'
p1023
tp1024
Rp1025
tp1026
a((F358.8155197657394
F282.625
tp1027
g236
(g240
S'.,\xc0\\\x84&%@'
p1028
tp1029
Rp1030
tp1031
a((F365.3748169838946
F264.5
tp1032
g236
(g240
S'j\xc7\xb9\x05\xe0\x04\x10@'
p1033
tp1034
Rp1035
tp1036
a((F374.51098096632506
F252.9375
tp1037
g236
(g240
S'\xc4\x1b\xb8\x86\xb4\xdb\x15@'
p1038
tp1039
Rp1040
tp1041
a((F382.94436310395315
F249.8125
tp1042
g236
(g240
S'\x00\xa1\xf6J\xa8\xbd\xf2?'
p1043
tp1044
Rp1045
tp1046
a((F366.5461200585652
F241.375
tp1047
g236
(g240
S'\xa6\xf8HV\xaa\n\x18@'
p1048
tp1049
Rp1050
tp1051
a((F54.81698389458273
F303.1875
tp1052
g236
(g240
S'\x98\x00KFi4\x1b@'
p1053
tp1054
Rp1055
tp1056
a((F62.31332357247438
F275.0625
tp1057
g236
(g240
S'd=\xb9p\x9e\xd8\x19@'
p1058
tp1059
Rp1060
tp1061
a((F107.2913616398243
F337.9375
tp1062
g236
(g240
S']\x18/\xef<\xdd#@'
p1063
tp1064
Rp1065
tp1066
a((F99.56076134699853
F324.5
tp1067
g236
(g240
S'\x9f\xb0`<\x9f~\x19@'
p1068
tp1069
Rp1070
tp1071
a((F103.54319180087847
F311.375
tp1072
g236
(g240
S's\xcfbPIE\x15@'
p1073
tp1074
Rp1075
tp1076
a((F111.50805270863836
F311.375
tp1077
g236
(g240
S'\xd0\xf0x\xec"H\x11@'
p1078
tp1079
Rp1080
tp1081
a((F111.03953147877013
F321.375
tp1082
g236
(g240
S'\x95\xea\xf3\x84\x10\r\x11@'
p1083
tp1084
Rp1085
tp1086
a((F90.89311859443632
F287.3125
tp1087
g236
(g240
S'\x80\xe1\xf2h\xb8<\xfa?'
p1088
tp1089
Rp1090
tp1091
a((F99.32650073206443
F287.0
tp1092
g236
(g240
S'\xb5\xc4\x87\x9b\x16\xc4\x04@'
p1093
tp1094
Rp1095
tp1096
a((F70.74670571010249
F295.4375
tp1097
g236
(g240
S'\x90\x8c9\xfb2\xaa\x1a@'
p1098
tp1099
Rp1100
tp1101
a((F55.05124450951684
F249.1875
tp1102
g236
(g240
S'\xb7-\x81\x01`\xcf\x16@'
p1103
tp1104
Rp1105
tp1106
a((F363.26647144948754
F92.8125
tp1107
g236
(g240
S'\x93]~\xcdm\x16\x14@'
p1108
tp1109
Rp1110
tp1111
a((F311.2606149341142
F32.5
tp1112
g236
(g240
S'\xe5Y\x8c\x08\x8c\x0b\n@'
p1113
tp1114
Rp1115
tp1116
a((F299.54758418740846
F30.312500000000004
tp1117
g236
(g240
S'\xb3@\x0f\x08i1\x14@'
p1118
tp1119
Rp1120
tp1121
a((F252.69546120058567
F34.375
tp1122
g236
(g240
S'\xc0-\x81\x01`\xcf\x06@'
p1123
tp1124
Rp1125
tp1126
a((F276.8243045387994
F44.6875
tp1127
g236
(g240
S'\x07\xfb\xce\xd2\x98\xb5\n@'
p1128
tp1129
Rp1130
tp1131
a((F260.47437774524155
F174.3125
tp1132
g236
(g240
S'\x94^\xd6\xdf\xd4\xc4\x10@'
p1133
tp1134
Rp1135
tp1136
a((F279.68374816983896
F194.0
tp1137
g236
(g240
S'Q\x88]\x0e\xa7\xa0\x06@'
p1138
tp1139
Rp1140
tp1141
a((F278.9809663250366
F184.3125
tp1142
g236
(g240
S'oU\xc9\xd3t\xde\x12@'
p1143
tp1144
Rp1145
tp1146
a((F252.74377745241583
F201.1875
tp1147
g236
(g240
S'\xd5i\x0b\x89\xc0I\x0b@'
p1148
tp1149
Rp1150
tp1151
a((F199.56661786237188
F122.125
tp1152
g236
(g240
S'PY\x8e\xfb\x19\xcd\x04@'
p1153
tp1154
Rp1155
tp1156
a((F219.01024890190337
F149.3125
tp1157
g236
(g240
S'\xa1ab48\xd0\x00@'
p1158
tp1159
Rp1160
tp1161
a((F159.27379209370423
F168.375
tp1162
g236
(g240
S'\x89\xfag\xbb\xeam\x0f@'
p1163
tp1164
Rp1165
tp1166
a((F164.6617862371889
F277.125
tp1167
g236
(g240
S'\x94\xe87\xa9\x14\xc2\x12@'
p1168
tp1169
Rp1170
tp1171
a((F19.740849194729137
F281.0625
tp1172
g236
(g240
S'\x06~\xf0\xad\xed@\x1e@'
p1173
tp1174
Rp1175
tp1176
a((F11.775988286969254
F281.6875
tp1177
g236
(g240
S'\xf5\x08\xb9\x0b\xd0\x1e\x12@'
p1178
tp1179
Rp1180
tp1181
a((F31.45387994143485
F253.5625
tp1182
g236
(g240
S'g[T\xcat\xc6\x04@'
p1183
tp1184
Rp1185
tp1186
a((F26.002928257686676
F98.8125
tp1187
g236
(g240
S'"_+E\xcb~\x16@'
p1188
tp1189
Rp1190
tp1191
a((F26.471449487554906
F118.1875
tp1192
g236
(g240
S'`\xcby\x03\xe8\xb4\x07@'
p1193
tp1194
Rp1195
tp1196
a((F25.300146412884335
F140.6875
tp1197
g236
(g240
S'&\xdf\x04\xe6\xdbN\x12@'
p1198
tp1199
Rp1200
tp1201
a((F15.226939970717424
F142.5625
tp1202
g236
(g240
S'C\xf7\x18:\x9e\xa3\x18@'
p1203
tp1204
Rp1205
tp1206
a((F27.174231332357248
F153.5
tp1207
g236
(g240
S'\xa9MZZ\xa0;\x0c@'
p1208
tp1209
Rp1210
tp1211
a((F52.94289897510981
F108.5
tp1212
g236
(g240
S'Z\xc4)\x9cGI!@'
p1213
tp1214
Rp1215
tp1216
a((F64.1874084919473
F89.75
tp1217
g236
(g240
S"R\xdca\x08\x1a1'@"
p1218
tp1219
Rp1220
tp1221
a.